; Function Attrs: mustprogress uwtable
define void @_ZN21ResolvedAddressesView15copyToClipboardENS_24eResolvedAddressesExportEb(ptr noundef nonnull align 8 dereferenceable(48) %0, i32 noundef %1, i1 noundef zeroext %2) local_unnamed_addr #0 align 2 personality ptr @__gxx_personality_v0 {
  %4 = alloca %class.QString, align 8
  %5 = alloca %class.QTextStream, align 8
  %6 = alloca %class.QString, align 8
  call void @llvm.memset.p0.i64(ptr noundef nonnull align 8 dereferenceable(24) %4, i8 0, i64 24, i1 false)
  invoke void @_ZN11QTextStreamC1EP7QString6QFlagsIN13QIODeviceBase12OpenModeFlagEE(ptr noundef nonnull align 8 dereferenceable(16) %5, ptr noundef nonnull %4, i32 16)
          to label %7 unwind label %21

7:                                                ; preds = %3
  invoke void @_ZNK21ResolvedAddressesView12toTextStreamER11QTextStreamNS_24eResolvedAddressesExportEb(ptr noundef nonnull align 8 dereferenceable(48) %0, ptr noundef nonnull align 8 dereferenceable(16) %5, i32 noundef %1, i1 noundef zeroext %2)
          to label %8 unwind label %23

8:                                                ; preds = %7
  %9 = invoke noundef ptr @_ZN15QGuiApplication9clipboardEv()
          to label %10 unwind label %23

10:                                               ; preds = %8
  invoke void @_ZN11QTextStream7readAllEv(ptr dead_on_unwind nonnull writable sret(%class.QString) align 8 %6, ptr noundef nonnull align 8 dereferenceable(16) %5)
          to label %11 unwind label %23

11:                                               ; preds = %10
  invoke void @_ZN10QClipboard7setTextERK7QStringNS_4ModeE(ptr noundef nonnull align 8 dereferenceable(16) %9, ptr noundef nonnull align 8 dereferenceable(24) %6, i32 noundef 0)
          to label %12 unwind label %25

12:                                               ; preds = %11
  %13 = load ptr, ptr %6, align 8
  %.not.i.i.i = icmp eq ptr %13, null
  br i1 %.not.i.i.i, label %_ZN7QStringD2Ev.exit, label %_ZN17QArrayDataPointerIDsE5derefEv.exit.i.i

_ZN17QArrayDataPointerIDsE5derefEv.exit.i.i:      ; preds = %12
  %14 = atomicrmw sub ptr %13, i32 1 seq_cst, align 4
  %.not.i.i = icmp eq i32 %14, 1
  br i1 %.not.i.i, label %15, label %_ZN7QStringD2Ev.exit

15:                                               ; preds = %_ZN17QArrayDataPointerIDsE5derefEv.exit.i.i
  %16 = load ptr, ptr %6, align 8
  call void @_ZN10QArrayData10deallocateEPS_xx(ptr noundef %16, i64 noundef 2, i64 noundef 8) #16
  br label %_ZN7QStringD2Ev.exit

_ZN7QStringD2Ev.exit:                             ; preds = %12, %_ZN17QArrayDataPointerIDsE5derefEv.exit.i.i, %15
  call void @_ZN11QTextStreamD1Ev(ptr noundef nonnull align 8 dereferenceable(16) %5) #16
  %17 = load ptr, ptr %4, align 8
  %.not.i.i.i8 = icmp eq ptr %17, null
  br i1 %.not.i.i.i8, label %_ZN7QStringD2Ev.exit11, label %_ZN17QArrayDataPointerIDsE5derefEv.exit.i.i9

_ZN17QArrayDataPointerIDsE5derefEv.exit.i.i9:     ; preds = %_ZN7QStringD2Ev.exit
  %18 = atomicrmw sub ptr %17, i32 1 seq_cst, align 4
  %.not.i.i10 = icmp eq i32 %18, 1
  br i1 %.not.i.i10, label %19, label %_ZN7QStringD2Ev.exit11

19:                                               ; preds = %_ZN17QArrayDataPointerIDsE5derefEv.exit.i.i9
  %20 = load ptr, ptr %4, align 8
  call void @_ZN10QArrayData10deallocateEPS_xx(ptr noundef %20, i64 noundef 2, i64 noundef 8) #16
  br label %_ZN7QStringD2Ev.exit11

_ZN7QStringD2Ev.exit11:                           ; preds = %_ZN7QStringD2Ev.exit, %_ZN17QArrayDataPointerIDsE5derefEv.exit.i.i9, %19
  ret void

21:                                               ; preds = %3
  %22 = landingpad { ptr, i32 }
          cleanup
  br label %31

23:                                               ; preds = %10, %8, %7
  %24 = landingpad { ptr, i32 }
          cleanup
  br label %_ZN7QStringD2Ev.exit15

25:                                               ; preds = %11
  %26 = landingpad { ptr, i32 }
          cleanup
  %27 = load ptr, ptr %6, align 8
  %.not.i.i.i12 = icmp eq ptr %27, null
  br i1 %.not.i.i.i12, label %_ZN7QStringD2Ev.exit15, label %_ZN17QArrayDataPointerIDsE5derefEv.exit.i.i13

_ZN17QArrayDataPointerIDsE5derefEv.exit.i.i13:    ; preds = %25
  %28 = atomicrmw sub ptr %27, i32 1 seq_cst, align 4
  %.not.i.i14 = icmp eq i32 %28, 1
  br i1 %.not.i.i14, label %29, label %_ZN7QStringD2Ev.exit15

29:                                               ; preds = %_ZN17QArrayDataPointerIDsE5derefEv.exit.i.i13
  %30 = load ptr, ptr %6, align 8
  call void @_ZN10QArrayData10deallocateEPS_xx(ptr noundef %30, i64 noundef 2, i64 noundef 8) #16
  br label %_ZN7QStringD2Ev.exit15

_ZN7QStringD2Ev.exit15:                           ; preds = %29, %_ZN17QArrayDataPointerIDsE5derefEv.exit.i.i13, %25, %23
  %.pn = phi { ptr, i32 } [ %24, %23 ], [ %26, %25 ], [ %26, %_ZN17QArrayDataPointerIDsE5derefEv.exit.i.i13 ], [ %26, %29 ]
  call void @_ZN11QTextStreamD1Ev(ptr noundef nonnull align 8 dereferenceable(16) %5) #16
  br label %31

31:                                               ; preds = %_ZN7QStringD2Ev.exit15, %21
  %.pn.pn = phi { ptr, i32 } [ %.pn, %_ZN7QStringD2Ev.exit15 ], [ %22, %21 ]
  %32 = load ptr, ptr %4, align 8
  %.not.i.i.i16 = icmp eq ptr %32, null
  br i1 %.not.i.i.i16, label %_ZN7QStringD2Ev.exit19, label %_ZN17QArrayDataPointerIDsE5derefEv.exit.i.i17

_ZN17QArrayDataPointerIDsE5derefEv.exit.i.i17:    ; preds = %31
  %33 = atomicrmw sub ptr %32, i32 1 seq_cst, align 4
  %.not.i.i18 = icmp eq i32 %33, 1
  br i1 %.not.i.i18, label %34, label %_ZN7QStringD2Ev.exit19

34:                                               ; preds = %_ZN17QArrayDataPointerIDsE5derefEv.exit.i.i17
  %35 = load ptr, ptr %4, align 8
  call void @_ZN10QArrayData10deallocateEPS_xx(ptr noundef %35, i64 noundef 2, i64 noundef 8) #16
  br label %_ZN7QStringD2Ev.exit19

_ZN7QStringD2Ev.exit19:                           ; preds = %31, %_ZN17QArrayDataPointerIDsE5derefEv.exit.i.i17, %34
  resume { ptr, i32 } %.pn.pn
}